; Function Attrs: nounwind sspstrong uwtable
define internal fastcc void @gzfile_read_more(ptr noundef %0, i64 noundef %1) unnamed_addr #0 {
  %3 = alloca %struct.zstream_run_args, align 8
  %4 = alloca %struct.read_raw_arg, align 8
  %5 = alloca i64, align 8
  %6 = alloca ptr, align 8
  call void @llvm.lifetime.start.p0(i64 8, ptr nonnull %5) #18
  %7 = load i64, ptr %0, align 8, !tbaa !113
  %8 = and i64 %7, 4
  %.not10 = icmp eq i64 %8, 0
  br i1 %.not10, label %.lr.ph, label %.loopexit

.lr.ph:                                           ; preds = %2
  %9 = getelementptr i8, ptr %0, i64 152
  %10 = getelementptr inbounds nuw i8, ptr %4, i64 8
  %11 = getelementptr inbounds nuw i8, ptr %4, i64 16
  %12 = ptrtoint ptr %4 to i64
  %13 = getelementptr inbounds nuw i8, ptr %3, i64 8
  %14 = getelementptr inbounds nuw i8, ptr %3, i64 16
  %15 = getelementptr inbounds nuw i8, ptr %3, i64 24
  %16 = getelementptr inbounds nuw i8, ptr %3, i64 28
  %17 = getelementptr inbounds nuw i8, ptr %3, i64 32
  %18 = getelementptr inbounds nuw i8, ptr %3, i64 36
  %19 = ptrtoint ptr %3 to i64
  %20 = getelementptr inbounds nuw i8, ptr %0, i64 8
  br label %21

21:                                               ; preds = %.lr.ph, %.critedge.backedge
  %.val = load i64, ptr %9, align 8, !tbaa !117
  call void @llvm.lifetime.start.p0(i64 24, ptr nonnull %4) #18
  store i64 %.val, ptr %4, align 8, !tbaa !255
  store i64 4097, ptr %10, align 8, !tbaa !149
  store i64 %1, ptr %11, align 8, !tbaa !149
  %22 = load i64, ptr @rb_eEOFError, align 8, !tbaa !6
  %23 = load i64, ptr @rb_eNoMethodError, align 8, !tbaa !6
  %24 = call i64 (ptr, i64, ptr, i64, ...) @rb_rescue2(ptr noundef nonnull @gzfile_read_raw_partial, i64 noundef %12, ptr noundef nonnull @gzfile_read_raw_rescue, i64 noundef %12, i64 noundef %22, i64 noundef %23, i64 noundef 0) #18
  call void @llvm.lifetime.end.p0(i64 24, ptr nonnull %4) #18
  store i64 %24, ptr %5, align 8, !tbaa !6
  %25 = icmp eq i64 %24, 4
  br i1 %25, label %26, label %31

26:                                               ; preds = %21
  %27 = load i64, ptr %0, align 8, !tbaa !113
  %28 = and i64 %27, 4
  %.not9 = icmp eq i64 %28, 0
  br i1 %.not9, label %29, label %.loopexit

29:                                               ; preds = %26
  %30 = load i64, ptr @cGzError, align 8, !tbaa !6
  call void (i64, ptr, ...) @rb_raise(i64 noundef %30, ptr noundef nonnull @.str.167) #19
  unreachable

31:                                               ; preds = %21
  %32 = inttoptr i64 %24 to ptr
  %33 = getelementptr inbounds nuw i8, ptr %32, i64 16
  %34 = load i64, ptr %33, align 8, !tbaa !21
  %35 = icmp sgt i64 %34, 0
  br i1 %35, label %36, label %54

36:                                               ; preds = %31
  %37 = load i64, ptr %32, align 8, !tbaa !16, !noalias !257
  %38 = and i64 %37, 8192
  %.not.i.i = icmp eq i64 %38, 0
  %39 = getelementptr inbounds nuw i8, ptr %32, i64 24
  br i1 %.not.i.i, label %RSTRING_PTR.exit, label %40

40:                                               ; preds = %36
  %.sroa.2.0.copyload.i = load ptr, ptr %39, align 8
  br label %RSTRING_PTR.exit

RSTRING_PTR.exit:                                 ; preds = %36, %40
  %.sroa.2.0.i = phi ptr [ %.sroa.2.0.copyload.i, %40 ], [ %39, %36 ]
  call void @llvm.lifetime.start.p0(i64 40, ptr nonnull %3) #18
  store ptr %0, ptr %3, align 8, !tbaa !61
  store ptr %.sroa.2.0.i, ptr %13, align 8, !tbaa !64
  store i64 %34, ptr %14, align 8, !tbaa !65
  store i32 2, ptr %15, align 8, !tbaa !66
  store i32 0, ptr %16, align 4, !tbaa !67
  store i32 0, ptr %17, align 8, !tbaa !68
  %41 = load i64, ptr %0, align 8, !tbaa !42
  %42 = and i64 %41, 16
  %.not.i = icmp eq i64 %42, 0
  br i1 %.not.i, label %43, label %47

43:                                               ; preds = %RSTRING_PTR.exit
  %44 = call i32 @rb_block_given_p() #18
  %45 = icmp ne i32 %44, 0
  %46 = zext i1 %45 to i32
  br label %47

47:                                               ; preds = %43, %RSTRING_PTR.exit
  %48 = phi i32 [ 0, %RSTRING_PTR.exit ], [ %46, %43 ]
  store i32 %48, ptr %18, align 4, !tbaa !69
  %49 = call i64 @rb_ensure(ptr noundef nonnull @zstream_run_try, i64 noundef %19, ptr noundef nonnull @zstream_run_ensure, i64 noundef %19) #18
  %50 = load i32, ptr %17, align 8, !tbaa !68
  %.not4.i = icmp eq i32 %50, 0
  br i1 %.not4.i, label %zstream_run.exit, label %51

51:                                               ; preds = %47
  call void @rb_jump_tag(i32 noundef %50) #19
  unreachable

zstream_run.exit:                                 ; preds = %47
  call void @llvm.lifetime.end.p0(i64 40, ptr nonnull %3) #18
  call void @llvm.lifetime.start.p0(i64 8, ptr nonnull %6) #18
  store ptr %5, ptr %6, align 8, !tbaa !10
  call void asm sideeffect "", "*m,~{dirflag},~{fpsr},~{flags}"(ptr nonnull elementtype(ptr) %6) #18, !srcloc !260
  %52 = load ptr, ptr %6, align 8, !tbaa !10
  call void @llvm.lifetime.end.p0(i64 8, ptr nonnull %6) #18
  %53 = load volatile i64, ptr %52, align 8, !tbaa !6
  br label %54

54:                                               ; preds = %zstream_run.exit, %31
  %55 = load i64, ptr %20, align 8, !tbaa !132
  %56 = icmp eq i64 %55, 4
  br i1 %56, label %.critedge.backedge, label %57

57:                                               ; preds = %54
  %58 = inttoptr i64 %55 to ptr
  %59 = getelementptr inbounds nuw i8, ptr %58, i64 16
  %60 = load i64, ptr %59, align 8, !tbaa !21
  %61 = icmp sgt i64 %60, 0
  br i1 %61, label %.loopexit, label %.critedge.backedge

.critedge.backedge:                               ; preds = %57, %54
  %62 = load i64, ptr %0, align 8, !tbaa !113
  %63 = and i64 %62, 4
  %.not = icmp eq i64 %63, 0
  br i1 %.not, label %21, label %.loopexit, !llvm.loop !261

.loopexit:                                        ; preds = %.critedge.backedge, %57, %2, %26
  call void @llvm.lifetime.end.p0(i64 8, ptr nonnull %5) #18
  ret void
}